target datalayout = "e-m:e-p270:32:32-p271:32:32-p272:64:64-i64:64-i128:128-f80:128-n8:16:32:64-S128"
target triple = "x86_64-unknown-linux-gnu"

%"class.QuantLib::Date" = type { i64 }

@_ZN8QuantLib4DateC1El = unnamed_addr alias void (ptr, i64), ptr @_ZN8QuantLib4DateC2El

; Function Attrs: inlinehint mustprogress uwtable
define linkonce_odr i64 @_ZNK8QuantLib4DateplEl(ptr noundef nonnull align 8 dereferenceable(8) %this, i64 noundef %days) #7 comdat align 2 {
entry:
  %retval = alloca %"class.QuantLib::Date", align 8
  %this.addr = alloca ptr, align 8
  %days.addr = alloca i64, align 8
  store ptr %this, ptr %this.addr, align 8, !tbaa !3
  store i64 %days, ptr %days.addr, align 8, !tbaa !10
  %this1 = load ptr, ptr %this.addr, align 8
  %serialNumber_ = getelementptr inbounds nuw %"class.QuantLib::Date", ptr %this1, i32 0, i32 0
  %0 = load i64, ptr %serialNumber_, align 8, !tbaa !7
  %1 = load i64, ptr %days.addr, align 8, !tbaa !10
  %add = add nsw i64 %0, %1
  call void @_ZN8QuantLib4DateC1El(ptr noundef nonnull align 8 dereferenceable(8) %retval, i64 noundef %add)
  %coerce.dive = getelementptr inbounds nuw %"class.QuantLib::Date", ptr %retval, i32 0, i32 0
  %2 = load i64, ptr %coerce.dive, align 8
  ret i64 %2
}

; Function Attrs: inlinehint mustprogress nounwind uwtable
define linkonce_odr noundef i32 @_ZNK8QuantLib4Date7weekdayEv(ptr noundef nonnull align 8 dereferenceable(8) %this) #8 comdat align 2 {
entry:
  %this.addr = alloca ptr, align 8
  %w = alloca i32, align 4
  store ptr %this, ptr %this.addr, align 8, !tbaa !3
  %this1 = load ptr, ptr %this.addr, align 8
  call void @llvm.lifetime.start.p0(i64 4, ptr %w) #3
  %serialNumber_ = getelementptr inbounds nuw %"class.QuantLib::Date", ptr %this1, i32 0, i32 0
  %0 = load i64, ptr %serialNumber_, align 8, !tbaa !7
  %rem = srem i64 %0, 7
  %conv = trunc i64 %rem to i32
  store i32 %conv, ptr %w, align 4, !tbaa !11
  %1 = load i32, ptr %w, align 4, !tbaa !11
  %cmp = icmp eq i32 %1, 0
  br i1 %cmp, label %cond.true, label %cond.false

cond.true:                                        ; preds = %entry
  br label %cond.end

cond.false:                                       ; preds = %entry
  %2 = load i32, ptr %w, align 4, !tbaa !11
  br label %cond.end

cond.end:                                         ; preds = %cond.false, %cond.true
  %cond = phi i32 [ 7, %cond.true ], [ %2, %cond.false ]
  call void @llvm.lifetime.end.p0(i64 4, ptr %w) #3
  ret i32 %cond
}

; Function Attrs: mustprogress uwtable
define i64 @_ZN8QuantLib4Date11nextWeekdayERKS0_NS_7WeekdayE(ptr noundef nonnull align 8 dereferenceable(8) %d, i32 noundef %dayOfWeek) #5 align 2 {
entry:
  %retval = alloca %"class.QuantLib::Date", align 8
  %d.addr = alloca ptr, align 8
  %dayOfWeek.addr = alloca i32, align 4
  %wd = alloca i32, align 4
  store ptr %d, ptr %d.addr, align 8, !tbaa !3
  store i32 %dayOfWeek, ptr %dayOfWeek.addr, align 4, !tbaa !37
  call void @llvm.lifetime.start.p0(i64 4, ptr %wd) #3
  %0 = load ptr, ptr %d.addr, align 8, !tbaa !3
  %call = call noundef i32 @_ZNK8QuantLib4Date7weekdayEv(ptr noundef nonnull align 8 dereferenceable(8) %0)
  store i32 %call, ptr %wd, align 4, !tbaa !37
  %1 = load ptr, ptr %d.addr, align 8, !tbaa !3
  %2 = load i32, ptr %wd, align 4, !tbaa !37
  %3 = load i32, ptr %dayOfWeek.addr, align 4, !tbaa !37
  %cmp = icmp sgt i32 %2, %3
  %cond = select i1 %cmp, i32 7, i32 0
  %4 = load i32, ptr %wd, align 4, !tbaa !37
  %sub = sub nsw i32 %cond, %4
  %5 = load i32, ptr %dayOfWeek.addr, align 4, !tbaa !37
  %add = add nsw i32 %sub, %5
  %conv = sext i32 %add to i64
  %call1 = call i64 @_ZNK8QuantLib4DateplEl(ptr noundef nonnull align 8 dereferenceable(8) %1, i64 noundef %conv)
  %coerce.dive = getelementptr inbounds nuw %"class.QuantLib::Date", ptr %retval, i32 0, i32 0
  store i64 %call1, ptr %coerce.dive, align 8
  call void @llvm.lifetime.end.p0(i64 4, ptr %wd) #3
  %coerce.dive2 = getelementptr inbounds nuw %"class.QuantLib::Date", ptr %retval, i32 0, i32 0
  %6 = load i64, ptr %coerce.dive2, align 8
  ret i64 %6
}