; Function Attrs: mustprogress uwtable
define i64 @_ZN8QuantLib4Date11nextWeekdayERKS0_NS_7WeekdayE(ptr nocapture noundef nonnull readonly align 8 dereferenceable(8) %d, i32 noundef %dayOfWeek) local_unnamed_addr #4 align 2 {
entry:
  %retval.i = alloca %"class.QuantLib::Date", align 8
  %0 = load i64, ptr %d, align 8, !tbaa !3
  %rem.i = srem i64 %0, 7
  %conv.i = trunc nsw i64 %rem.i to i32
  %cmp.i = icmp eq i64 %rem.i, 0
  %cond.i = select i1 %cmp.i, i32 7, i32 %conv.i
  %cmp = icmp sgt i32 %cond.i, %dayOfWeek
  %cond = select i1 %cmp, i32 7, i32 0
  %sub = sub i32 %dayOfWeek, %cond.i
  %add = add i32 %sub, %cond
  %conv = sext i32 %add to i64
  call void @llvm.lifetime.start.p0(i64 8, ptr nonnull %retval.i)
  %add.i = add nsw i64 %0, %conv
  call void @_ZN8QuantLib4DateC1El(ptr noundef nonnull align 8 dereferenceable(8) %retval.i, i64 noundef %add.i)
  %1 = load i64, ptr %retval.i, align 8
  call void @llvm.lifetime.end.p0(i64 8, ptr nonnull %retval.i)
  ret i64 %1
}